; Function Attrs: nounwind uwtable
define hidden void @zif_phar_is_link(ptr noundef %0, ptr noundef %1) #0 {
  %3 = alloca ptr, align 8
  %4 = alloca i64, align 8
  %5 = alloca ptr, align 8
  %6 = alloca ptr, align 8
  %7 = alloca i64, align 8
  %8 = alloca i64, align 8
  %9 = alloca ptr, align 8
  call void @llvm.lifetime.start.p0(i64 8, ptr nonnull %3) #12
  call void @llvm.lifetime.start.p0(i64 8, ptr nonnull %4) #12
  %10 = load i8, ptr getelementptr inbounds nuw (i8, ptr @phar_globals, i64 199), align 1, !tbaa !9, !range !19, !noundef !20
  %11 = trunc nuw i8 %10 to i1
  br i1 %11, label %12, label %77

12:                                               ; preds = %2
  %13 = load i32, ptr getelementptr inbounds nuw (i8, ptr @phar_globals, i64 64), align 8, !tbaa !21
  %14 = and i32 %13, 8
  %15 = icmp eq i32 %14, 0
  %16 = load i32, ptr getelementptr inbounds nuw (i8, ptr @phar_globals, i64 84), align 4
  %.not = icmp eq i32 %16, 0
  %or.cond = select i1 %15, i1 %.not, i1 false
  br i1 %or.cond, label %17, label %21

17:                                               ; preds = %12
  %18 = load i32, ptr getelementptr inbounds nuw (i8, ptr @cached_phars, i64 8), align 8, !tbaa !21
  %19 = and i32 %18, 8
  %20 = icmp eq i32 %19, 0
  br i1 %20, label %21, label %77

21:                                               ; preds = %17, %12
  %22 = getelementptr inbounds nuw i8, ptr %0, i64 44
  %23 = load i32, ptr %22, align 4, !tbaa !21
  %24 = call i32 (i32, i32, ptr, ...) @zend_parse_parameters_ex(i32 noundef 2, i32 noundef %23, ptr noundef nonnull @.str.12, ptr noundef nonnull %3, ptr noundef nonnull %4) #12
  %25 = icmp eq i32 %24, -1
  br i1 %25, label %77, label %26

26:                                               ; preds = %21
  %27 = load ptr, ptr %3, align 8, !tbaa !50
  %28 = load i8, ptr %27, align 1, !tbaa !21
  %29 = icmp eq i8 %28, 47
  br i1 %29, label %77, label %30

30:                                               ; preds = %26
  %31 = call ptr @strstr(ptr noundef nonnull dereferenceable(1) %27, ptr noundef nonnull dereferenceable(1) @.str.1) #13
  %.not17 = icmp eq ptr %31, null
  br i1 %.not17, label %32, label %77

32:                                               ; preds = %30
  call void @llvm.lifetime.start.p0(i64 8, ptr nonnull %5) #12
  call void @llvm.lifetime.start.p0(i64 8, ptr nonnull %6) #12
  call void @llvm.lifetime.start.p0(i64 8, ptr nonnull %7) #12
  call void @llvm.lifetime.start.p0(i64 8, ptr nonnull %8) #12
  %33 = call ptr @zend_get_executed_filename_ex() #12
  %.not18 = icmp eq ptr %33, null
  br i1 %.not18, label %.thread, label %34

34:                                               ; preds = %32
  %35 = getelementptr inbounds nuw i8, ptr %33, i64 16
  %36 = load i64, ptr %35, align 8, !tbaa !51
  %37 = icmp ugt i64 %36, 6
  br i1 %37, label %zend_string_starts_with_cstr_ci.exit, label %.thread

zend_string_starts_with_cstr_ci.exit:             ; preds = %34
  %38 = getelementptr inbounds nuw i8, ptr %33, i64 24
  %39 = call i32 @strncasecmp(ptr noundef nonnull %38, ptr noundef nonnull @.str.2, i64 noundef 7) #13
  %.not.i = icmp eq i32 %39, 0
  br i1 %.not.i, label %40, label %.thread

40:                                               ; preds = %zend_string_starts_with_cstr_ci.exit
  %41 = call i32 @phar_split_fname(ptr noundef nonnull %38, i64 noundef %36, ptr noundef nonnull %5, ptr noundef nonnull %7, ptr noundef nonnull %6, ptr noundef nonnull %8, i32 noundef 2, i32 noundef 0) #12
  %42 = icmp eq i32 %41, 0
  br i1 %42, label %43, label %.thread

43:                                               ; preds = %40
  call void @llvm.lifetime.start.p0(i64 8, ptr nonnull %9) #12
  %44 = load ptr, ptr %6, align 8, !tbaa !50
  call void @_efree(ptr noundef %44) #12
  %45 = load ptr, ptr %3, align 8, !tbaa !50
  store ptr %45, ptr %6, align 8, !tbaa !50
  %46 = load i64, ptr %4, align 8, !tbaa !53
  store i64 %46, ptr %8, align 8, !tbaa !53
  %47 = load ptr, ptr %5, align 8, !tbaa !50
  %48 = load i64, ptr %7, align 8, !tbaa !53
  %49 = call i32 @phar_get_archive(ptr noundef nonnull %9, ptr noundef %47, i64 noundef %48, ptr noundef null, i64 noundef 0, ptr noundef null) #12
  %50 = icmp eq i32 %49, 0
  br i1 %50, label %51, label %zend_hash_str_find_ptr.exit25.thread

51:                                               ; preds = %43
  %52 = load ptr, ptr %6, align 8, !tbaa !50
  %53 = load i64, ptr %8, align 8, !tbaa !53
  %54 = call noalias ptr @_estrndup(ptr noundef %52, i64 noundef %53) #12
  %55 = call ptr @phar_fix_filepath(ptr noundef %54, ptr noundef nonnull %8, i32 noundef 1) #12
  store ptr %55, ptr %6, align 8, !tbaa !50
  %56 = load i8, ptr %55, align 1, !tbaa !21
  %57 = icmp eq i8 %56, 47
  %58 = load ptr, ptr %9, align 8, !tbaa !69
  %59 = getelementptr inbounds nuw i8, ptr %58, i64 64
  br i1 %57, label %60, label %70

60:                                               ; preds = %51
  %61 = getelementptr inbounds nuw i8, ptr %55, i64 1
  %62 = load i64, ptr %8, align 8, !tbaa !53
  %63 = add i64 %62, -1
  %64 = call ptr @zend_hash_str_find(ptr noundef nonnull %59, ptr noundef nonnull %61, i64 noundef %63) #12
  %.not.i23 = icmp eq ptr %64, null
  br i1 %.not.i23, label %zend_hash_str_find_ptr.exit25.thread, label %.critedge

.critedge:                                        ; preds = %70, %60
  %.013.in = phi ptr [ %64, %60 ], [ %72, %70 ]
  %.013 = load ptr, ptr %.013.in, align 8, !tbaa !21, !nonnull !20, !noundef !20
  %65 = load ptr, ptr %6, align 8, !tbaa !50
  call void @_efree(ptr noundef %65) #12
  %66 = load ptr, ptr %5, align 8, !tbaa !50
  call void @_efree(ptr noundef %66) #12
  %67 = getelementptr inbounds nuw i8, ptr %.013, i64 128
  %68 = load ptr, ptr %67, align 8, !tbaa !91
  %.not21 = icmp eq ptr %68, null
  %69 = select i1 %.not21, i32 2, i32 3
  br label %75

70:                                               ; preds = %51
  %71 = load i64, ptr %8, align 8, !tbaa !53
  %72 = call ptr @zend_hash_str_find(ptr noundef nonnull %59, ptr noundef nonnull %55, i64 noundef %71) #12
  %.not.i22 = icmp eq ptr %72, null
  br i1 %.not.i22, label %zend_hash_str_find_ptr.exit25.thread, label %.critedge

zend_hash_str_find_ptr.exit25.thread:             ; preds = %70, %60, %43
  %73 = load ptr, ptr %6, align 8, !tbaa !50
  call void @_efree(ptr noundef %73) #12
  %74 = load ptr, ptr %5, align 8, !tbaa !50
  call void @_efree(ptr noundef %74) #12
  br label %75

.thread:                                          ; preds = %zend_string_starts_with_cstr_ci.exit, %32, %40, %34
  call void @llvm.lifetime.end.p0(i64 8, ptr nonnull %8) #12
  call void @llvm.lifetime.end.p0(i64 8, ptr nonnull %7) #12
  call void @llvm.lifetime.end.p0(i64 8, ptr nonnull %6) #12
  call void @llvm.lifetime.end.p0(i64 8, ptr nonnull %5) #12
  br label %77

75:                                               ; preds = %zend_hash_str_find_ptr.exit25.thread, %.critedge
  %.sink = phi i32 [ 2, %zend_hash_str_find_ptr.exit25.thread ], [ %69, %.critedge ]
  %76 = getelementptr inbounds nuw i8, ptr %1, i64 8
  store i32 %.sink, ptr %76, align 8, !tbaa !21
  call void @llvm.lifetime.end.p0(i64 8, ptr nonnull %9) #12
  call void @llvm.lifetime.end.p0(i64 8, ptr nonnull %8) #12
  call void @llvm.lifetime.end.p0(i64 8, ptr nonnull %7) #12
  call void @llvm.lifetime.end.p0(i64 8, ptr nonnull %6) #12
  call void @llvm.lifetime.end.p0(i64 8, ptr nonnull %5) #12
  br label %79

77:                                               ; preds = %.thread, %26, %30, %21, %17, %2
  %78 = load ptr, ptr getelementptr inbounds nuw (i8, ptr @phar_globals, i64 232), align 8, !tbaa !115
  call void %78(ptr noundef %0, ptr noundef %1) #12
  br label %79

79:                                               ; preds = %75, %77
  call void @llvm.lifetime.end.p0(i64 8, ptr nonnull %4) #12
  call void @llvm.lifetime.end.p0(i64 8, ptr nonnull %3) #12
  ret void
}